; Function Attrs: mustprogress uwtable
define void @_ZN12colvarmodule4atomC2ERKiRKNSt7__cxx1112basic_stringIcSt11char_traitsIcESaIcEEESA_(ptr nocapture noundef nonnull writeonly align 8 dereferenceable(120) %0, ptr noundef nonnull align 4 dereferenceable(4) %1, ptr noundef nonnull align 8 dereferenceable(32) %2, ptr noundef nonnull align 8 dereferenceable(32) %3) unnamed_addr #2 align 2 {
  %5 = getelementptr inbounds i8, ptr %0, i64 24
  tail call void @llvm.memset.p0.i64(ptr noundef nonnull align 8 dereferenceable(96) %5, i8 0, i64 96, i1 false)
  %6 = tail call noundef ptr @_ZN12colvarmodule4mainEv()
  %7 = load ptr, ptr @_ZN12colvarmodule5proxyE, align 8
  %8 = getelementptr inbounds i8, ptr %7, i64 256
  %9 = load ptr, ptr %8, align 8
  %10 = getelementptr inbounds i8, ptr %9, i64 40
  %11 = load ptr, ptr %10, align 8
  %12 = tail call noundef i32 %11(ptr noundef nonnull align 8 dereferenceable(199) %8, ptr noundef nonnull align 4 dereferenceable(4) %1, ptr noundef nonnull align 8 dereferenceable(32) %2, ptr noundef nonnull align 8 dereferenceable(32) %3)
  store i32 %12, ptr %0, align 8
  %13 = getelementptr inbounds i8, ptr %7, i64 264
  %14 = sext i32 %12 to i64
  %15 = load ptr, ptr %13, align 8
  %16 = getelementptr inbounds i32, ptr %15, i64 %14
  %17 = load i32, ptr %16, align 4
  %18 = getelementptr inbounds i8, ptr %0, i64 4
  store i32 %17, ptr %18, align 4
  %19 = load ptr, ptr @_ZN12colvarmodule5proxyE, align 8
  %20 = getelementptr inbounds i8, ptr %19, i64 312
  %21 = load ptr, ptr %20, align 8
  %22 = getelementptr inbounds double, ptr %21, i64 %14
  %23 = load double, ptr %22, align 8
  %24 = getelementptr inbounds i8, ptr %0, i64 8
  store double %23, ptr %24, align 8
  %25 = getelementptr inbounds i8, ptr %19, i64 336
  %26 = load ptr, ptr %25, align 8
  %27 = getelementptr inbounds double, ptr %26, i64 %14
  %28 = load double, ptr %27, align 8
  %29 = getelementptr inbounds i8, ptr %0, i64 16
  store double %28, ptr %29, align 8
  tail call void @llvm.memset.p0.i64(ptr noundef nonnull align 8 dereferenceable(96) %5, i8 0, i64 96, i1 false)
  ret void
}